; Function Attrs: mustprogress ssp uwtable
define internal fastcc noundef range(i32 3, 16) i32 @_ZN6open3d1t2io12_GLOBAL__N_110GetPlyTypeERKNS_4core5DtypeE(ptr noundef nonnull align 8 dereferenceable(32) %0) unnamed_addr #4 personality ptr @__gxx_personality_v0 {
  %2 = alloca %"class.std::__cxx11::basic_string", align 8
  %3 = tail call noundef zeroext i1 @_ZNK6open3d4core5DtypeeqERKS1_(ptr noundef nonnull align 8 dereferenceable(32) %0, ptr noundef nonnull align 8 dereferenceable(32) @_ZN6open3d4core5UInt8E)
  br i1 %3, label %24, label %4

4:                                                ; preds = %1
  %5 = tail call noundef zeroext i1 @_ZNK6open3d4core5DtypeeqERKS1_(ptr noundef nonnull align 8 dereferenceable(32) %0, ptr noundef nonnull align 8 dereferenceable(32) @_ZN6open3d4core6UInt16E)
  br i1 %5, label %24, label %6

6:                                                ; preds = %4
  %7 = tail call noundef zeroext i1 @_ZNK6open3d4core5DtypeeqERKS1_(ptr noundef nonnull align 8 dereferenceable(32) %0, ptr noundef nonnull align 8 dereferenceable(32) @_ZN6open3d4core5Int32E)
  br i1 %7, label %24, label %8

8:                                                ; preds = %6
  %9 = tail call noundef zeroext i1 @_ZNK6open3d4core5DtypeeqERKS1_(ptr noundef nonnull align 8 dereferenceable(32) %0, ptr noundef nonnull align 8 dereferenceable(32) @_ZN6open3d4core7Float32E)
  br i1 %9, label %24, label %10

10:                                               ; preds = %8
  %11 = tail call noundef zeroext i1 @_ZNK6open3d4core5DtypeeqERKS1_(ptr noundef nonnull align 8 dereferenceable(32) %0, ptr noundef nonnull align 8 dereferenceable(32) @_ZN6open3d4core7Float64E)
  br i1 %11, label %24, label %12

12:                                               ; preds = %10
  call void @llvm.lifetime.start.p0(i64 32, ptr nonnull %2) #38
  call void @_ZNK6open3d4core5Dtype8ToStringB5cxx11Ev(ptr dead_on_unwind nonnull writable sret(%"class.std::__cxx11::basic_string") align 8 %2, ptr noundef nonnull align 8 dereferenceable(32) %0)
  invoke void @_ZN6open3d7utility6Logger9LogError_IJNSt7__cxx1112basic_stringIcSt11char_traitsIcESaIcEEEEEEvPKciSA_SA_DpOT_(ptr noundef nonnull @.str, i32 noundef 338, ptr noundef nonnull @__PRETTY_FUNCTION__._ZN6open3d1t2io12_GLOBAL__N_110GetPlyTypeERKNS_4core5DtypeE, ptr noundef nonnull @.str.115, ptr noundef nonnull align 8 dereferenceable(32) %2) #36
          to label %13 unwind label %14

13:                                               ; preds = %12
  unreachable

14:                                               ; preds = %12
  %15 = landingpad { ptr, i32 }
          cleanup
  %16 = load ptr, ptr %2, align 8, !tbaa !38
  %17 = getelementptr inbounds nuw i8, ptr %2, i64 16
  %18 = icmp eq ptr %16, %17
  br i1 %18, label %_ZNKSt7__cxx1112basic_stringIcSt11char_traitsIcESaIcEE11_M_is_localEv.exit.thread.i.i, label %_ZNKSt7__cxx1112basic_stringIcSt11char_traitsIcESaIcEE11_M_is_localEv.exit.i.i

_ZNKSt7__cxx1112basic_stringIcSt11char_traitsIcESaIcEE11_M_is_localEv.exit.thread.i.i: ; preds = %14
  %19 = getelementptr inbounds nuw i8, ptr %2, i64 8
  %20 = load i64, ptr %19, align 8, !tbaa !48
  %21 = icmp ult i64 %20, 16
  call void @llvm.assume(i1 %21)
  br label %_ZNSt7__cxx1112basic_stringIcSt11char_traitsIcESaIcEED2Ev.exit

_ZNKSt7__cxx1112basic_stringIcSt11char_traitsIcESaIcEE11_M_is_localEv.exit.i.i: ; preds = %14
  %22 = load i64, ptr %17, align 8, !tbaa !47
  %23 = add i64 %22, 1
  call void @_ZdlPvm(ptr noundef %16, i64 noundef %23) #35
  br label %_ZNSt7__cxx1112basic_stringIcSt11char_traitsIcESaIcEED2Ev.exit

_ZNSt7__cxx1112basic_stringIcSt11char_traitsIcESaIcEED2Ev.exit: ; preds = %_ZNKSt7__cxx1112basic_stringIcSt11char_traitsIcESaIcEE11_M_is_localEv.exit.thread.i.i, %_ZNKSt7__cxx1112basic_stringIcSt11char_traitsIcESaIcEE11_M_is_localEv.exit.i.i
  call void @llvm.lifetime.end.p0(i64 32, ptr nonnull %2) #38
  resume { ptr, i32 } %15

24:                                               ; preds = %10, %8, %6, %4, %1
  %.0 = phi i32 [ 9, %1 ], [ 3, %4 ], [ 12, %6 ], [ 14, %8 ], [ 15, %10 ]
  ret i32 %.0
}